target datalayout = "e-m:e-p270:32:32-p271:32:32-p272:64:64-i64:64-i128:128-f80:128-n8:16:32:64-S128"
target triple = "x86_64-pc-linux-gnu"

@.str.72 = private unnamed_addr constant [8 x i8] c"nonzero\00", align 1
@.str.73 = private unnamed_addr constant [8 x i8] c"evenodd\00", align 1

; Function Attrs: nounwind uwtable
define internal signext i8 @nsvg__parseFillRule(ptr noundef %0) #0 {
  %2 = alloca i8, align 1
  %3 = alloca ptr, align 8
  store ptr %0, ptr %3, align 8, !tbaa !4
  %4 = load ptr, ptr %3, align 8, !tbaa !4
  %5 = call i32 @strcmp(ptr noundef %4, ptr noundef @.str.72) #13
  %6 = icmp eq i32 %5, 0
  br i1 %6, label %7, label %8

7:                                                ; preds = %1
  store i8 0, ptr %2, align 1
  br label %15

8:                                                ; preds = %1
  %9 = load ptr, ptr %3, align 8, !tbaa !4
  %10 = call i32 @strcmp(ptr noundef %9, ptr noundef @.str.73) #13
  %11 = icmp eq i32 %10, 0
  br i1 %11, label %12, label %13

12:                                               ; preds = %8
  store i8 1, ptr %2, align 1
  br label %15

13:                                               ; preds = %8
  br label %14

14:                                               ; preds = %13
  store i8 0, ptr %2, align 1
  br label %15

15:                                               ; preds = %14, %12, %7
  %16 = load i8, ptr %2, align 1
  ret i8 %16
}