; Function Attrs: mustprogress nofree nounwind willreturn memory(argmem: read) uwtable
define internal fastcc signext range(i8 0, 2) i8 @nsvg__parseFillRule(ptr noundef readonly captures(none) %0) unnamed_addr #18 {
  %2 = tail call i32 @strcmp(ptr noundef nonnull dereferenceable(1) %0, ptr noundef nonnull dereferenceable(8) @.str.72) #32
  %3 = icmp eq i32 %2, 0
  br i1 %3, label %7, label %4

4:                                                ; preds = %1
  %5 = tail call i32 @strcmp(ptr noundef nonnull dereferenceable(1) %0, ptr noundef nonnull dereferenceable(8) @.str.73) #32
  %6 = icmp eq i32 %5, 0
  %. = zext i1 %6 to i8
  br label %7

7:                                                ; preds = %4, %1
  %.0 = phi i8 [ 0, %1 ], [ %., %4 ]
  ret i8 %.0
}